; ModuleID = '43/315.c'
source_filename = "43/315.c"
target datalayout = "e-m:e-p270:32:32-p271:32:32-p272:64:64-i64:64-f80:128-n8:16:32:64-S128"
target triple = "x86_64-pc-linux-gnu"

@.str = private unnamed_addr constant [3 x i8] c"%d\00", align 1
@.str.1 = private unnamed_addr constant [7 x i8] c"%d %d\0A\00", align 1

; Function Attrs: noinline nounwind uwtable
define dso_local i32 @main() #0 {
  %1 = alloca i32, align 4
  %2 = alloca i32, align 4
  %3 = alloca i32, align 4
  %4 = alloca i32, align 4
  %5 = alloca i32, align 4
  %6 = alloca i32, align 4
  %7 = alloca i32, align 4
  %8 = alloca i32, align 4
  store i32 0, i32* %1, align 4
  %9 = call i32 (i8*, ...) @__isoc99_scanf(i8* getelementptr inbounds ([3 x i8], [3 x i8]* @.str, i64 0, i64 0), i32* %2)
  %10 = load i32, i32* %2, align 4
  %11 = sdiv i32 %10, 2
  store i32 %11, i32* %5, align 4
  store i32 3, i32* %3, align 4
  br label %12

12:                                               ; preds = %67, %0
  %13 = load i32, i32* %3, align 4
  %14 = load i32, i32* %5, align 4
  %15 = icmp sle i32 %13, %14
  br i1 %15, label %16, label %70

16:                                               ; preds = %12
  store i32 0, i32* %6, align 4
  %17 = load i32, i32* %2, align 4
  %18 = load i32, i32* %3, align 4
  %19 = sub nsw i32 %17, %18
  store i32 %19, i32* %4, align 4
  %20 = load i32, i32* %3, align 4
  %21 = icmp eq i32 %20, 3
  br i1 %21, label %22, label %23

22:                                               ; preds = %16
  store i32 0, i32* %6, align 4
  br label %39

23:                                               ; preds = %16
  store i32 2, i32* %7, align 4
  br label %24

24:                                               ; preds = %35, %23
  %25 = load i32, i32* %7, align 4
  %26 = load i32, i32* %3, align 4
  %27 = icmp slt i32 %25, %26
  br i1 %27, label %28, label %38

28:                                               ; preds = %24
  %29 = load i32, i32* %3, align 4
  %30 = load i32, i32* %7, align 4
  %31 = srem i32 %29, %30
  %32 = icmp eq i32 %31, 0
  br i1 %32, label %33, label %34

33:                                               ; preds = %28
  store i32 1, i32* %6, align 4
  br label %34

34:                                               ; preds = %33, %28
  br label %35

35:                                               ; preds = %34
  %36 = load i32, i32* %7, align 4
  %37 = add nsw i32 %36, 1
  store i32 %37, i32* %7, align 4
  br label %24

38:                                               ; preds = %24
  br label %39

39:                                               ; preds = %38, %22
  %40 = load i32, i32* %4, align 4
  %41 = icmp eq i32 %40, 3
  br i1 %41, label %42, label %43

42:                                               ; preds = %39
  store i32 0, i32* %6, align 4
  br label %59

43:                                               ; preds = %39
  store i32 2, i32* %8, align 4
  br label %44

44:                                               ; preds = %55, %43
  %45 = load i32, i32* %8, align 4
  %46 = load i32, i32* %4, align 4
  %47 = icmp slt i32 %45, %46
  br i1 %47, label %48, label %58

48:                                               ; preds = %44
  %49 = load i32, i32* %4, align 4
  %50 = load i32, i32* %8, align 4
  %51 = srem i32 %49, %50
  %52 = icmp eq i32 %51, 0
  br i1 %52, label %53, label %54

53:                                               ; preds = %48
  store i32 1, i32* %6, align 4
  br label %54

54:                                               ; preds = %53, %48
  br label %55

55:                                               ; preds = %54
  %56 = load i32, i32* %8, align 4
  %57 = add nsw i32 %56, 1
  store i32 %57, i32* %8, align 4
  br label %44

58:                                               ; preds = %44
  br label %59

59:                                               ; preds = %58, %42
  %60 = load i32, i32* %6, align 4
  %61 = icmp eq i32 %60, 0
  br i1 %61, label %62, label %66

62:                                               ; preds = %59
  %63 = load i32, i32* %3, align 4
  %64 = load i32, i32* %4, align 4
  %65 = call i32 (i8*, ...) @printf(i8* getelementptr inbounds ([7 x i8], [7 x i8]* @.str.1, i64 0, i64 0), i32 %63, i32 %64)
  br label %66

66:                                               ; preds = %62, %59
  br label %67

67:                                               ; preds = %66
  %68 = load i32, i32* %3, align 4
  %69 = add nsw i32 %68, 1
  store i32 %69, i32* %3, align 4
  br label %12

70:                                               ; preds = %12
  ret i32 0
}

declare dso_local i32 @__isoc99_scanf(i8*, ...) #1

declare dso_local i32 @printf(i8*, ...) #1


!llvm.module.flags = !{!0}
!llvm.ident = !{!1}

!0 = !{i32 1, !"wchar_size", i32 4}
!1 = !{!"clang version 10.0.0-4ubuntu1 "}
